target datalayout = "e-m:e-p270:32:32-p271:32:32-p272:64:64-i64:64-i128:128-f80:128-n8:16:32:64-S128"
target triple = "x86_64-pc-linux-gnu"

%struct.ctl_node_s = type { i8 }

@ctl_initialized = internal global i8 0, align 1
@super_root_node = internal constant [1 x { %struct.ctl_node_s, [7 x i8], ptr, i64, ptr, ptr }] [{ %struct.ctl_node_s, [7 x i8], ptr, i64, ptr, ptr } { %struct.ctl_node_s { i8 1 }, [7 x i8] zeroinitializer, ptr @.str.1, i64 13, ptr @root_node, ptr null }], align 16

; Function Attrs: alwaysinline nounwind uwtable
define internal ptr @tsd_tsdn(ptr noundef %0) #2 {
  %2 = alloca ptr, align 8
  store ptr %0, ptr %2, align 8, !tbaa !4
  %3 = load ptr, ptr %2, align 8, !tbaa !4
  ret ptr %3
}

; Function Attrs: nounwind uwtable
define hidden i32 @je_ctl_nametomib(ptr noundef %0, ptr noundef %1, ptr noundef %2, ptr noundef %3) #0 {
  %5 = alloca ptr, align 8
  %6 = alloca ptr, align 8
  %7 = alloca ptr, align 8
  %8 = alloca ptr, align 8
  %9 = alloca i32, align 4
  store ptr %0, ptr %5, align 8, !tbaa !4
  store ptr %1, ptr %6, align 8, !tbaa !9
  store ptr %2, ptr %7, align 8, !tbaa !12
  store ptr %3, ptr %8, align 8, !tbaa !12
  call void @llvm.lifetime.start.p0(i64 4, ptr %9) #13
  %10 = load i8, ptr @ctl_initialized, align 1, !tbaa !16, !range !18, !noundef !19
  %11 = trunc i8 %10 to i1
  br i1 %11, label %16, label %12

12:                                               ; preds = %4
  %13 = load ptr, ptr %5, align 8, !tbaa !4
  %14 = call zeroext i1 @ctl_init(ptr noundef %13)
  br i1 %14, label %15, label %16

15:                                               ; preds = %12
  store i32 11, ptr %9, align 4, !tbaa !20
  br label %23

16:                                               ; preds = %12, %4
  %17 = load ptr, ptr %5, align 8, !tbaa !4
  %18 = call ptr @tsd_tsdn(ptr noundef %17)
  %19 = load ptr, ptr %6, align 8, !tbaa !9
  %20 = load ptr, ptr %7, align 8, !tbaa !12
  %21 = load ptr, ptr %8, align 8, !tbaa !12
  %22 = call i32 @ctl_lookup(ptr noundef %18, ptr noundef @super_root_node, ptr noundef %19, ptr noundef null, ptr noundef %20, ptr noundef %21)
  store i32 %22, ptr %9, align 4, !tbaa !20
  br label %23

23:                                               ; preds = %16, %15
  %24 = load i32, ptr %9, align 4, !tbaa !20
  call void @llvm.lifetime.end.p0(i64 4, ptr %9) #13
  ret i32 %24
}