; Function Attrs: nounwind uwtable
define hidden range(i32 0, 12) i32 @je_ctl_nametomib(ptr noundef %0, ptr noundef %1, ptr noundef %2, ptr noundef captures(none) %3) local_unnamed_addr #0 {
  %.b5 = load i1, ptr @ctl_initialized, align 1
  br i1 %.b5, label %7, label %5

5:                                                ; preds = %4
  %6 = tail call fastcc zeroext i1 @ctl_init(ptr noundef %0)
  br i1 %6, label %9, label %7

7:                                                ; preds = %5, %4
  %8 = tail call fastcc i32 @ctl_lookup(ptr noundef %0, ptr noundef nonnull @super_root_node, ptr noundef %1, ptr noundef null, ptr noundef %2, ptr noundef %3)
  br label %9

9:                                                ; preds = %5, %7
  %.0 = phi i32 [ %8, %7 ], [ 11, %5 ]
  ret i32 %.0
}